; Function Attrs: mustprogress uwtable
define void @_ZNK32pxrInternal_v0_24__pxrReserved__11GfDualQuatd9TransformERKNS_7GfVec3dE(ptr dead_on_unwind noalias writable writeonly sret(%"class.pxrInternal_v0_24__pxrReserved__::GfVec3d") align 8 captures(none) initializes((0, 24)) %0, ptr noundef nonnull align 8 dereferenceable(64) %1, ptr noundef nonnull align 8 dereferenceable(24) %2) local_unnamed_addr #0 align 2 {
  %4 = alloca %"class.pxrInternal_v0_24__pxrReserved__::GfVec3d", align 8
  call void @_ZNK32pxrInternal_v0_24__pxrReserved__7GfQuatd9TransformERKNS_7GfVec3dE(ptr dead_on_unwind nonnull writable sret(%"class.pxrInternal_v0_24__pxrReserved__::GfVec3d") align 8 %4, ptr noundef nonnull align 8 dereferenceable(32) %1, ptr noundef nonnull align 8 dereferenceable(24) %2)
  %5 = getelementptr inbounds nuw i8, ptr %1, i64 32
  %6 = getelementptr inbounds nuw i8, ptr %1, i64 56
  %7 = load double, ptr %6, align 8, !noalias !44
  %8 = getelementptr inbounds nuw i8, ptr %1, i64 24
  %9 = load double, ptr %8, align 8, !noalias !44
  %10 = load double, ptr %1, align 8, !noalias !44
  %11 = load double, ptr %5, align 8, !noalias !44
  %12 = fneg double %11
  %13 = fmul double %9, %12
  %14 = call double @llvm.fmuladd.f64(double %7, double %10, double %13)
  %15 = getelementptr inbounds nuw i8, ptr %1, i64 40
  %16 = load double, ptr %15, align 8, !noalias !44
  %17 = getelementptr inbounds nuw i8, ptr %1, i64 16
  %18 = load double, ptr %17, align 8, !noalias !44
  %19 = getelementptr inbounds nuw i8, ptr %1, i64 48
  %20 = load double, ptr %19, align 8, !noalias !44
  %21 = getelementptr inbounds nuw i8, ptr %1, i64 8
  %22 = load double, ptr %21, align 8, !noalias !44
  %23 = fneg double %22
  %24 = fmul double %20, %23
  %25 = call double @llvm.fmuladd.f64(double %16, double %18, double %24)
  %26 = fadd double %14, %25
  %27 = fmul double %26, 2.000000e+00
  %28 = fneg double %16
  %29 = fmul double %9, %28
  %30 = call double @llvm.fmuladd.f64(double %7, double %22, double %29)
  %31 = fneg double %18
  %32 = fmul double %11, %31
  %33 = call double @llvm.fmuladd.f64(double %20, double %10, double %32)
  %34 = fadd double %33, %30
  %35 = fmul double %34, 2.000000e+00
  %36 = fneg double %20
  %37 = fmul double %9, %36
  %38 = call double @llvm.fmuladd.f64(double %7, double %18, double %37)
  %39 = fneg double %10
  %40 = fmul double %16, %39
  %41 = call double @llvm.fmuladd.f64(double %11, double %22, double %40)
  %42 = fadd double %38, %41
  %43 = fmul double %42, 2.000000e+00
  call void @llvm.experimental.noalias.scope.decl(metadata !47)
  %.sroa.0.0.copyload.i = load double, ptr %4, align 8, !noalias !47
  %.sroa.4.0..sroa_idx.i = getelementptr inbounds nuw i8, ptr %4, i64 8
  %.sroa.4.0.copyload.i = load double, ptr %.sroa.4.0..sroa_idx.i, align 8, !noalias !47
  %.sroa.6.0..sroa_idx.i = getelementptr inbounds nuw i8, ptr %4, i64 16
  %.sroa.6.0.copyload.i = load double, ptr %.sroa.6.0..sroa_idx.i, align 8, !noalias !47
  %44 = fsub double %.sroa.0.0.copyload.i, %27
  %45 = fsub double %.sroa.4.0.copyload.i, %35
  %46 = fsub double %.sroa.6.0.copyload.i, %43
  store double %44, ptr %0, align 8, !alias.scope !47
  %.sroa.4.0..sroa_idx3.i = getelementptr inbounds nuw i8, ptr %0, i64 8
  store double %45, ptr %.sroa.4.0..sroa_idx3.i, align 8, !alias.scope !47
  %.sroa.6.0..sroa_idx5.i = getelementptr inbounds nuw i8, ptr %0, i64 16
  store double %46, ptr %.sroa.6.0..sroa_idx5.i, align 8, !alias.scope !47
  ret void
}